target datalayout = "e-m:e-p270:32:32-p271:32:32-p272:64:64-i64:64-i128:128-f80:128-n8:16:32:64-S128"
target triple = "x86_64-unknown-linux-gnu"

%"struct.icu_75::UInitOnce" = type { %"struct.std::atomic", i32 }
%"struct.std::atomic" = type { %"struct.std::__atomic_base" }
%"struct.std::__atomic_base" = type { i32 }

@_ZL21gSpoofInitStaticsOnce = internal global { { i32 }, i32 } zeroinitializer, align 4

; Function Attrs: noreturn nounwind uwtable
define linkonce_odr hidden void @__clang_call_terminate(ptr noundef %0) #5 comdat {
  %2 = call ptr @__cxa_begin_catch(ptr %0) #6
  call void @_ZSt9terminatev() #8
  unreachable
}

; Function Attrs: mustprogress nounwind uwtable
define linkonce_odr noundef i32 @_ZStanSt12memory_orderSt23__memory_order_modifier(i32 noundef %__m, i32 noundef %__mod) #1 comdat {
entry:
  %__m.addr = alloca i32, align 4
  %__mod.addr = alloca i32, align 4
  store i32 %__m, ptr %__m.addr, align 4
  store i32 %__mod, ptr %__mod.addr, align 4
  %0 = load i32, ptr %__m.addr, align 4
  %1 = load i32, ptr %__mod.addr, align 4
  %and = and i32 %0, %1
  ret i32 %and
}

; Function Attrs: mustprogress nounwind uwtable
define linkonce_odr noundef i32 @_ZN6icu_7516umtx_loadAcquireERSt6atomicIiE(ptr noundef nonnull align 4 dereferenceable(4) %var) #1 comdat personality ptr @__gxx_personality_v0 {
entry:
  %this.addr.i = alloca ptr, align 8
  %__m.addr.i = alloca i32, align 4
  %__b.i = alloca i32, align 4
  %atomic-temp.i = alloca i32, align 4
  %var.addr = alloca ptr, align 8
  store ptr %var, ptr %var.addr, align 8
  %0 = load ptr, ptr %var.addr, align 8
  store ptr %0, ptr %this.addr.i, align 8
  store i32 2, ptr %__m.addr.i, align 4
  %this1.i = load ptr, ptr %this.addr.i, align 8
  %1 = load i32, ptr %__m.addr.i, align 4
  %call.i = invoke noundef i32 @_ZStanSt12memory_orderSt23__memory_order_modifier(i32 noundef %1, i32 noundef 65535)
          to label %invoke.cont.i unwind label %terminate.lpad.i

invoke.cont.i:                                    ; preds = %entry
  store i32 %call.i, ptr %__b.i, align 4
  %2 = load i32, ptr %__m.addr.i, align 4
  switch i32 %2, label %monotonic.i [
    i32 1, label %acquire.i
    i32 2, label %acquire.i
    i32 5, label %seqcst.i
  ]

monotonic.i:                                      ; preds = %invoke.cont.i
  %3 = load atomic i32, ptr %this1.i monotonic, align 4
  store i32 %3, ptr %atomic-temp.i, align 4
  br label %_ZNKSt13__atomic_baseIiE4loadESt12memory_order.exit

acquire.i:                                        ; preds = %invoke.cont.i, %invoke.cont.i
  %4 = load atomic i32, ptr %this1.i acquire, align 4
  store i32 %4, ptr %atomic-temp.i, align 4
  br label %_ZNKSt13__atomic_baseIiE4loadESt12memory_order.exit

seqcst.i:                                         ; preds = %invoke.cont.i
  %5 = load atomic i32, ptr %this1.i seq_cst, align 4
  store i32 %5, ptr %atomic-temp.i, align 4
  br label %_ZNKSt13__atomic_baseIiE4loadESt12memory_order.exit

terminate.lpad.i:                                 ; preds = %entry
  %6 = landingpad { ptr, i32 }
          catch ptr null
  %7 = extractvalue { ptr, i32 } %6, 0
  call void @__clang_call_terminate(ptr %7) #8
  unreachable

_ZNKSt13__atomic_baseIiE4loadESt12memory_order.exit: ; preds = %seqcst.i, %acquire.i, %monotonic.i
  %8 = load i32, ptr %atomic-temp.i, align 4
  ret i32 %8
}

; Function Attrs: mustprogress uwtable
define linkonce_odr void @_ZN6icu_7513umtx_initOnceERNS_9UInitOnceEPFvR10UErrorCodeES3_(ptr noundef nonnull align 4 dereferenceable(8) %uio, ptr noundef %fp, ptr noundef nonnull align 4 dereferenceable(4) %errCode) #0 comdat {
entry:
  %uio.addr = alloca ptr, align 8
  %fp.addr = alloca ptr, align 8
  %errCode.addr = alloca ptr, align 8
  store ptr %uio, ptr %uio.addr, align 8
  store ptr %fp, ptr %fp.addr, align 8
  store ptr %errCode, ptr %errCode.addr, align 8
  %0 = load ptr, ptr %errCode.addr, align 8
  %1 = load i32, ptr %0, align 4
  %call = call noundef signext i8 @_ZL9U_FAILURE10UErrorCode(i32 noundef %1)
  %tobool = icmp ne i8 %call, 0
  br i1 %tobool, label %if.then, label %if.end

if.then:                                          ; preds = %entry
  br label %if.end11

if.end:                                           ; preds = %entry
  %2 = load ptr, ptr %uio.addr, align 8
  %fState = getelementptr inbounds %"struct.icu_75::UInitOnce", ptr %2, i32 0, i32 0
  %call1 = call noundef i32 @_ZN6icu_7516umtx_loadAcquireERSt6atomicIiE(ptr noundef nonnull align 4 dereferenceable(4) %fState)
  %cmp = icmp ne i32 %call1, 2
  br i1 %cmp, label %land.lhs.true, label %if.else

land.lhs.true:                                    ; preds = %if.end
  %3 = load ptr, ptr %uio.addr, align 8
  %call2 = call noundef signext i8 @_ZN6icu_7520umtx_initImplPreInitERNS_9UInitOnceE(ptr noundef nonnull align 4 dereferenceable(8) %3)
  %tobool3 = icmp ne i8 %call2, 0
  br i1 %tobool3, label %if.then4, label %if.else

if.then4:                                         ; preds = %land.lhs.true
  %4 = load ptr, ptr %fp.addr, align 8
  %5 = load ptr, ptr %errCode.addr, align 8
  call void %4(ptr noundef nonnull align 4 dereferenceable(4) %5)
  %6 = load ptr, ptr %errCode.addr, align 8
  %7 = load i32, ptr %6, align 4
  %8 = load ptr, ptr %uio.addr, align 8
  %fErrCode = getelementptr inbounds %"struct.icu_75::UInitOnce", ptr %8, i32 0, i32 1
  store i32 %7, ptr %fErrCode, align 4
  %9 = load ptr, ptr %uio.addr, align 8
  call void @_ZN6icu_7521umtx_initImplPostInitERNS_9UInitOnceE(ptr noundef nonnull align 4 dereferenceable(8) %9)
  br label %if.end11

if.else:                                          ; preds = %land.lhs.true, %if.end
  %10 = load ptr, ptr %uio.addr, align 8
  %fErrCode5 = getelementptr inbounds %"struct.icu_75::UInitOnce", ptr %10, i32 0, i32 1
  %11 = load i32, ptr %fErrCode5, align 4
  %call6 = call noundef signext i8 @_ZL9U_FAILURE10UErrorCode(i32 noundef %11)
  %tobool7 = icmp ne i8 %call6, 0
  br i1 %tobool7, label %if.then8, label %if.end10

if.then8:                                         ; preds = %if.else
  %12 = load ptr, ptr %uio.addr, align 8
  %fErrCode9 = getelementptr inbounds %"struct.icu_75::UInitOnce", ptr %12, i32 0, i32 1
  %13 = load i32, ptr %fErrCode9, align 4
  %14 = load ptr, ptr %errCode.addr, align 8
  store i32 %13, ptr %14, align 4
  br label %if.end10

if.end10:                                         ; preds = %if.then8, %if.else
  br label %if.end11

if.end11:                                         ; preds = %if.end10, %if.then4, %if.then
  ret void
}

; Function Attrs: mustprogress nounwind uwtable
define internal noundef signext i8 @_ZL9U_FAILURE10UErrorCode(i32 noundef %code) #1 {
entry:
  %code.addr = alloca i32, align 4
  store i32 %code, ptr %code.addr, align 4
  %0 = load i32, ptr %code.addr, align 4
  %cmp = icmp sgt i32 %0, 0
  %conv = zext i1 %cmp to i8
  ret i8 %conv
}

; Function Attrs: mustprogress uwtable
define ptr @uspoof_openFromSerialized_75(ptr noundef %data, i32 noundef %length, ptr noundef %pActualLength, ptr noundef %status) #0 personality ptr @__gxx_personality_v0 {
entry:
  %retval = alloca ptr, align 8
  %data.addr = alloca ptr, align 8
  %length.addr = alloca i32, align 4
  %pActualLength.addr = alloca ptr, align 8
  %status.addr = alloca ptr, align 8
  %sd = alloca ptr, align 8
  %saved-rvalue = alloca ptr, align 8
  %cleanup.cond = alloca i1, align 1
  %exn.slot = alloca ptr, align 8
  %ehselector.slot = alloca i32, align 4
  %si = alloca ptr, align 8
  %saved-rvalue18 = alloca ptr, align 8
  %cleanup.cond19 = alloca i1, align 1
  store ptr %data, ptr %data.addr, align 8
  store i32 %length, ptr %length.addr, align 4
  store ptr %pActualLength, ptr %pActualLength.addr, align 8
  store ptr %status, ptr %status.addr, align 8
  %0 = load ptr, ptr %status.addr, align 8
  %1 = load i32, ptr %0, align 4
  %call = call noundef signext i8 @_ZL9U_FAILURE10UErrorCode(i32 noundef %1)
  %tobool = icmp ne i8 %call, 0
  br i1 %tobool, label %if.then, label %if.end

if.then:                                          ; preds = %entry
  store ptr null, ptr %retval, align 8
  br label %return

if.end:                                           ; preds = %entry
  %2 = load ptr, ptr %data.addr, align 8
  %cmp = icmp eq ptr %2, null
  br i1 %cmp, label %if.then1, label %if.end2

if.then1:                                         ; preds = %if.end
  %3 = load ptr, ptr %status.addr, align 8
  store i32 1, ptr %3, align 4
  store ptr null, ptr %retval, align 8
  br label %return

if.end2:                                          ; preds = %if.end
  %4 = load ptr, ptr %status.addr, align 8
  call void @_ZN6icu_7513umtx_initOnceERNS_9UInitOnceEPFvR10UErrorCodeES3_(ptr noundef nonnull align 4 dereferenceable(8) @_ZL21gSpoofInitStaticsOnce, ptr noundef @_ZN12_GLOBAL__N_117initializeStaticsER10UErrorCode, ptr noundef nonnull align 4 dereferenceable(4) %4)
  %5 = load ptr, ptr %status.addr, align 8
  %6 = load i32, ptr %5, align 4
  %call3 = call noundef signext i8 @_ZL9U_FAILURE10UErrorCode(i32 noundef %6)
  %tobool4 = icmp ne i8 %call3, 0
  br i1 %tobool4, label %if.then5, label %if.end6

if.then5:                                         ; preds = %if.end2
  store ptr null, ptr %retval, align 8
  br label %return

if.end6:                                          ; preds = %if.end2
  %call7 = call noundef ptr @_ZN6icu_757UMemorynwEm(i64 noundef 56) #6
  %new.isnull = icmp eq ptr %call7, null
  store i1 false, ptr %cleanup.cond, align 1
  br i1 %new.isnull, label %new.cont, label %new.notnull

new.notnull:                                      ; preds = %if.end6
  store ptr %call7, ptr %saved-rvalue, align 8
  store i1 true, ptr %cleanup.cond, align 1
  %7 = load ptr, ptr %data.addr, align 8
  %8 = load i32, ptr %length.addr, align 4
  %9 = load ptr, ptr %status.addr, align 8
  invoke void @_ZN6icu_759SpoofDataC1EPKviR10UErrorCode(ptr noundef nonnull align 8 dereferenceable(56) %call7, ptr noundef %7, i32 noundef %8, ptr noundef nonnull align 4 dereferenceable(4) %9)
          to label %invoke.cont unwind label %lpad

invoke.cont:                                      ; preds = %new.notnull
  br label %new.cont

new.cont:                                         ; preds = %invoke.cont, %if.end6
  %10 = phi ptr [ %call7, %invoke.cont ], [ null, %if.end6 ]
  store ptr %10, ptr %sd, align 8
  %11 = load ptr, ptr %sd, align 8
  %cmp8 = icmp eq ptr %11, null
  br i1 %cmp8, label %if.then9, label %if.end10

if.then9:                                         ; preds = %new.cont
  %12 = load ptr, ptr %status.addr, align 8
  store i32 7, ptr %12, align 4
  store ptr null, ptr %retval, align 8
  br label %return

lpad:                                             ; preds = %new.notnull
  %13 = landingpad { ptr, i32 }
          cleanup
  %14 = extractvalue { ptr, i32 } %13, 0
  store ptr %14, ptr %exn.slot, align 8
  %15 = extractvalue { ptr, i32 } %13, 1
  store i32 %15, ptr %ehselector.slot, align 4
  %cleanup.is_active = load i1, ptr %cleanup.cond, align 1
  br i1 %cleanup.is_active, label %cleanup.action, label %cleanup.done

cleanup.action:                                   ; preds = %lpad
  %16 = load ptr, ptr %saved-rvalue, align 8
  call void @_ZN6icu_757UMemorydlEPv(ptr noundef %16) #6
  br label %cleanup.done

cleanup.done:                                     ; preds = %cleanup.action, %lpad
  br label %eh.resume

if.end10:                                         ; preds = %new.cont
  %17 = load ptr, ptr %status.addr, align 8
  %18 = load i32, ptr %17, align 4
  %call11 = call noundef signext i8 @_ZL9U_FAILURE10UErrorCode(i32 noundef %18)
  %tobool12 = icmp ne i8 %call11, 0
  br i1 %tobool12, label %if.then13, label %if.end14

if.then13:                                        ; preds = %if.end10
  %19 = load ptr, ptr %sd, align 8
  %isnull = icmp eq ptr %19, null
  br i1 %isnull, label %delete.end, label %delete.notnull

delete.notnull:                                   ; preds = %if.then13
  call void @_ZN6icu_759SpoofDataD1Ev(ptr noundef nonnull align 8 dereferenceable(56) %19) #6
  call void @_ZN6icu_757UMemorydlEPv(ptr noundef %19) #6
  br label %delete.end

delete.end:                                       ; preds = %delete.notnull, %if.then13
  store ptr null, ptr %retval, align 8
  br label %return

if.end14:                                         ; preds = %if.end10
  %call15 = call noundef ptr @_ZN6icu_757UMemorynwEm(i64 noundef 48) #6
  %new.isnull16 = icmp eq ptr %call15, null
  store i1 false, ptr %cleanup.cond19, align 1
  br i1 %new.isnull16, label %new.cont25, label %new.notnull17

new.notnull17:                                    ; preds = %if.end14
  store ptr %call15, ptr %saved-rvalue18, align 8
  store i1 true, ptr %cleanup.cond19, align 1
  %20 = load ptr, ptr %sd, align 8
  %21 = load ptr, ptr %status.addr, align 8
  invoke void @_ZN6icu_759SpoofImplC1EPNS_9SpoofDataER10UErrorCode(ptr noundef nonnull align 8 dereferenceable(44) %call15, ptr noundef %20, ptr noundef nonnull align 4 dereferenceable(4) %21)
          to label %invoke.cont21 unwind label %lpad20

invoke.cont21:                                    ; preds = %new.notnull17
  br label %new.cont25

new.cont25:                                       ; preds = %invoke.cont21, %if.end14
  %22 = phi ptr [ %call15, %invoke.cont21 ], [ null, %if.end14 ]
  store ptr %22, ptr %si, align 8
  %23 = load ptr, ptr %si, align 8
  %cmp26 = icmp eq ptr %23, null
  br i1 %cmp26, label %if.then27, label %if.end31

if.then27:                                        ; preds = %new.cont25
  %24 = load ptr, ptr %status.addr, align 8
  store i32 7, ptr %24, align 4
  %25 = load ptr, ptr %sd, align 8
  %isnull28 = icmp eq ptr %25, null
  br i1 %isnull28, label %delete.end30, label %delete.notnull29

delete.notnull29:                                 ; preds = %if.then27
  call void @_ZN6icu_759SpoofDataD1Ev(ptr noundef nonnull align 8 dereferenceable(56) %25) #6
  call void @_ZN6icu_757UMemorydlEPv(ptr noundef %25) #6
  br label %delete.end30

delete.end30:                                     ; preds = %delete.notnull29, %if.then27
  store ptr null, ptr %retval, align 8
  br label %return

lpad20:                                           ; preds = %new.notnull17
  %26 = landingpad { ptr, i32 }
          cleanup
  %27 = extractvalue { ptr, i32 } %26, 0
  store ptr %27, ptr %exn.slot, align 8
  %28 = extractvalue { ptr, i32 } %26, 1
  store i32 %28, ptr %ehselector.slot, align 4
  %cleanup.is_active22 = load i1, ptr %cleanup.cond19, align 1
  br i1 %cleanup.is_active22, label %cleanup.action23, label %cleanup.done24

cleanup.action23:                                 ; preds = %lpad20
  %29 = load ptr, ptr %saved-rvalue18, align 8
  call void @_ZN6icu_757UMemorydlEPv(ptr noundef %29) #6
  br label %cleanup.done24

cleanup.done24:                                   ; preds = %cleanup.action23, %lpad20
  br label %eh.resume

if.end31:                                         ; preds = %new.cont25
  %30 = load ptr, ptr %status.addr, align 8
  %31 = load i32, ptr %30, align 4
  %call32 = call noundef signext i8 @_ZL9U_FAILURE10UErrorCode(i32 noundef %31)
  %tobool33 = icmp ne i8 %call32, 0
  br i1 %tobool33, label %if.then34, label %if.end38

if.then34:                                        ; preds = %if.end31
  %32 = load ptr, ptr %si, align 8
  %isnull35 = icmp eq ptr %32, null
  br i1 %isnull35, label %delete.end37, label %delete.notnull36

delete.notnull36:                                 ; preds = %if.then34
  %vtable = load ptr, ptr %32, align 8
  %vfn = getelementptr inbounds ptr, ptr %vtable, i64 1
  %33 = load ptr, ptr %vfn, align 8
  call void %33(ptr noundef nonnull align 8 dereferenceable(44) %32) #6
  br label %delete.end37

delete.end37:                                     ; preds = %delete.notnull36, %if.then34
  store ptr null, ptr %retval, align 8
  br label %return

if.end38:                                         ; preds = %if.end31
  %34 = load ptr, ptr %pActualLength.addr, align 8
  %cmp39 = icmp ne ptr %34, null
  br i1 %cmp39, label %if.then40, label %if.end42

if.then40:                                        ; preds = %if.end38
  %35 = load ptr, ptr %sd, align 8
  %call41 = call noundef i32 @_ZNK6icu_759SpoofData4sizeEv(ptr noundef nonnull align 8 dereferenceable(56) %35)
  %36 = load ptr, ptr %pActualLength.addr, align 8
  store i32 %call41, ptr %36, align 4
  br label %if.end42

if.end42:                                         ; preds = %if.then40, %if.end38
  %37 = load ptr, ptr %si, align 8
  %call43 = call noundef ptr @_ZN6icu_759SpoofImpl15asUSpoofCheckerEv(ptr noundef nonnull align 8 dereferenceable(44) %37)
  store ptr %call43, ptr %retval, align 8
  br label %return

return:                                           ; preds = %if.end42, %delete.end37, %delete.end30, %delete.end, %if.then9, %if.then5, %if.then1, %if.then
  %38 = load ptr, ptr %retval, align 8
  ret ptr %38

eh.resume:                                        ; preds = %cleanup.done24, %cleanup.done
  %exn = load ptr, ptr %exn.slot, align 8
  %sel = load i32, ptr %ehselector.slot, align 4
  %lpad.val = insertvalue { ptr, i32 } poison, ptr %exn, 0
  %lpad.val44 = insertvalue { ptr, i32 } %lpad.val, i32 %sel, 1
  resume { ptr, i32 } %lpad.val44
}