; Function Attrs: mustprogress uwtable
define noundef ptr @uspoof_openFromSerialized_75(ptr noundef %data, i32 noundef %length, ptr noundef writeonly %pActualLength, ptr noundef %status) local_unnamed_addr #0 personality ptr @__gxx_personality_v0 {
entry:
  %0 = load i32, ptr %status, align 4
  %cmp.i = icmp slt i32 %0, 1
  br i1 %cmp.i, label %if.end, label %return

if.end:                                           ; preds = %entry
  %cmp = icmp eq ptr %data, null
  br i1 %cmp, label %if.then1, label %if.end.i

if.then1:                                         ; preds = %if.end
  store i32 1, ptr %status, align 4
  br label %return

if.end.i:                                         ; preds = %if.end
  %1 = load atomic i32, ptr @_ZL21gSpoofInitStaticsOnce acquire, align 4
  %cmp.not.i = icmp eq i32 %1, 2
  br i1 %cmp.not.i, label %if.else.i, label %land.lhs.true.i

land.lhs.true.i:                                  ; preds = %if.end.i
  %call2.i = tail call noundef signext i8 @_ZN6icu_7520umtx_initImplPreInitERNS_9UInitOnceE(ptr noundef nonnull align 4 dereferenceable(8) @_ZL21gSpoofInitStaticsOnce)
  %tobool3.not.i = icmp eq i8 %call2.i, 0
  br i1 %tobool3.not.i, label %if.else.i, label %if.then4.i

if.then4.i:                                       ; preds = %land.lhs.true.i
  tail call fastcc void @_ZN12_GLOBAL__N_117initializeStaticsER10UErrorCode(ptr noundef nonnull align 4 dereferenceable(4) %status)
  %2 = load i32, ptr %status, align 4
  store i32 %2, ptr getelementptr inbounds ({ { i32 }, i32 }, ptr @_ZL21gSpoofInitStaticsOnce, i64 0, i32 1), align 4
  tail call void @_ZN6icu_7521umtx_initImplPostInitERNS_9UInitOnceE(ptr noundef nonnull align 4 dereferenceable(8) @_ZL21gSpoofInitStaticsOnce)
  br label %_ZN6icu_7513umtx_initOnceERNS_9UInitOnceEPFvR10UErrorCodeES3_.exit

if.else.i:                                        ; preds = %land.lhs.true.i, %if.end.i
  %3 = load i32, ptr getelementptr inbounds ({ { i32 }, i32 }, ptr @_ZL21gSpoofInitStaticsOnce, i64 0, i32 1), align 4
  %cmp.i9.i = icmp slt i32 %3, 1
  br i1 %cmp.i9.i, label %_ZN6icu_7513umtx_initOnceERNS_9UInitOnceEPFvR10UErrorCodeES3_.exit, label %_ZN6icu_7513umtx_initOnceERNS_9UInitOnceEPFvR10UErrorCodeES3_.exit.thread

_ZN6icu_7513umtx_initOnceERNS_9UInitOnceEPFvR10UErrorCodeES3_.exit.thread: ; preds = %if.else.i
  store i32 %3, ptr %status, align 4
  br label %return

_ZN6icu_7513umtx_initOnceERNS_9UInitOnceEPFvR10UErrorCodeES3_.exit: ; preds = %if.then4.i, %if.else.i
  %.pr = load i32, ptr %status, align 4
  %cmp.i20 = icmp slt i32 %.pr, 1
  br i1 %cmp.i20, label %if.end6, label %return

if.end6:                                          ; preds = %_ZN6icu_7513umtx_initOnceERNS_9UInitOnceEPFvR10UErrorCodeES3_.exit
  %call7 = tail call noundef ptr @_ZN6icu_757UMemorynwEm(i64 noundef 56) #6
  %new.isnull = icmp eq ptr %call7, null
  br i1 %new.isnull, label %if.then9, label %new.notnull

new.notnull:                                      ; preds = %if.end6
  invoke void @_ZN6icu_759SpoofDataC1EPKviR10UErrorCode(ptr noundef nonnull align 8 dereferenceable(56) %call7, ptr noundef nonnull %data, i32 noundef %length, ptr noundef nonnull align 4 dereferenceable(4) %status)
          to label %if.end10 unwind label %lpad

if.then9:                                         ; preds = %if.end6
  store i32 7, ptr %status, align 4
  br label %return

lpad:                                             ; preds = %new.notnull
  %4 = landingpad { ptr, i32 }
          cleanup
  br label %eh.resume

if.end10:                                         ; preds = %new.notnull
  %5 = load i32, ptr %status, align 4
  %cmp.i22 = icmp slt i32 %5, 1
  br i1 %cmp.i22, label %if.end14, label %delete.notnull

delete.notnull:                                   ; preds = %if.end10
  tail call void @_ZN6icu_759SpoofDataD1Ev(ptr noundef nonnull align 8 dereferenceable(56) %call7) #6
  tail call void @_ZN6icu_757UMemorydlEPv(ptr noundef nonnull %call7) #6
  br label %return

if.end14:                                         ; preds = %if.end10
  %call15 = tail call noundef ptr @_ZN6icu_757UMemorynwEm(i64 noundef 48) #6
  %new.isnull16 = icmp eq ptr %call15, null
  br i1 %new.isnull16, label %if.then27, label %new.notnull17

new.notnull17:                                    ; preds = %if.end14
  invoke void @_ZN6icu_759SpoofImplC1EPNS_9SpoofDataER10UErrorCode(ptr noundef nonnull align 8 dereferenceable(44) %call15, ptr noundef nonnull %call7, ptr noundef nonnull align 4 dereferenceable(4) %status)
          to label %if.end31 unwind label %lpad20

if.then27:                                        ; preds = %if.end14
  store i32 7, ptr %status, align 4
  tail call void @_ZN6icu_759SpoofDataD1Ev(ptr noundef nonnull align 8 dereferenceable(56) %call7) #6
  tail call void @_ZN6icu_757UMemorydlEPv(ptr noundef nonnull %call7) #6
  br label %return

lpad20:                                           ; preds = %new.notnull17
  %6 = landingpad { ptr, i32 }
          cleanup
  br label %eh.resume

if.end31:                                         ; preds = %new.notnull17
  %7 = load i32, ptr %status, align 4
  %cmp.i24 = icmp slt i32 %7, 1
  br i1 %cmp.i24, label %if.end38, label %delete.notnull36

delete.notnull36:                                 ; preds = %if.end31
  %vtable = load ptr, ptr %call15, align 8
  %vfn = getelementptr inbounds i8, ptr %vtable, i64 8
  %8 = load ptr, ptr %vfn, align 8
  tail call void %8(ptr noundef nonnull align 8 dereferenceable(44) %call15) #6
  br label %return

if.end38:                                         ; preds = %if.end31
  %cmp39.not = icmp eq ptr %pActualLength, null
  br i1 %cmp39.not, label %if.end42, label %if.then40

if.then40:                                        ; preds = %if.end38
  %call41 = tail call noundef i32 @_ZNK6icu_759SpoofData4sizeEv(ptr noundef nonnull align 8 dereferenceable(56) %call7)
  store i32 %call41, ptr %pActualLength, align 4
  br label %if.end42

if.end42:                                         ; preds = %if.then40, %if.end38
  %call43 = tail call noundef ptr @_ZN6icu_759SpoofImpl15asUSpoofCheckerEv(ptr noundef nonnull align 8 dereferenceable(44) %call15)
  br label %return

return:                                           ; preds = %_ZN6icu_7513umtx_initOnceERNS_9UInitOnceEPFvR10UErrorCodeES3_.exit.thread, %_ZN6icu_7513umtx_initOnceERNS_9UInitOnceEPFvR10UErrorCodeES3_.exit, %entry, %if.end42, %delete.notnull36, %if.then27, %delete.notnull, %if.then9, %if.then1
  %retval.0 = phi ptr [ null, %if.then1 ], [ null, %if.then9 ], [ null, %delete.notnull ], [ null, %if.then27 ], [ null, %delete.notnull36 ], [ %call43, %if.end42 ], [ null, %entry ], [ null, %_ZN6icu_7513umtx_initOnceERNS_9UInitOnceEPFvR10UErrorCodeES3_.exit ], [ null, %_ZN6icu_7513umtx_initOnceERNS_9UInitOnceEPFvR10UErrorCodeES3_.exit.thread ]
  ret ptr %retval.0

eh.resume:                                        ; preds = %lpad20, %lpad
  %call15.sink = phi ptr [ %call15, %lpad20 ], [ %call7, %lpad ]
  %.pn = phi { ptr, i32 } [ %6, %lpad20 ], [ %4, %lpad ]
  tail call void @_ZN6icu_757UMemorydlEPv(ptr noundef nonnull %call15.sink) #6
  resume { ptr, i32 } %.pn
}